target datalayout = "e-m:e-p270:32:32-p271:32:32-p272:64:64-i64:64-i128:128-f80:128-n8:16:32:64-S128"
target triple = "x86_64-pc-linux-gnu"

%struct.SDL_Renderer = type { ptr, ptr, ptr, ptr, ptr, ptr, ptr, ptr, ptr, ptr, ptr, ptr, ptr, ptr, ptr, ptr, ptr, ptr, ptr, ptr, ptr, ptr, ptr, ptr, ptr, ptr, ptr, ptr, ptr, ptr, i32, i8, ptr, i8, i8, i8, i64, i64, ptr, %struct.SDL_RenderViewState, %struct.SDL_FPoint, i32, i32, ptr, ptr, ptr, i32, float, float, float, float, %struct.SDL_FColor, i32, i32, i32, ptr, ptr, ptr, ptr, i32, %struct.SDL_FColor, float, %struct.SDL_Rect, %struct.SDL_Rect, i8, i8, i8, i8, ptr, i64, i64, i8, ptr, ptr, i32, ptr, i8, ptr, ptr }
%struct.SDL_RenderViewState = type { i32, i32, %struct.SDL_Rect, %struct.SDL_Rect, %struct.SDL_Rect, %struct.SDL_Rect, i8, %struct.SDL_FPoint, i32, i32, i32, %struct.SDL_FRect, %struct.SDL_FRect, %struct.SDL_FPoint, %struct.SDL_FPoint, %struct.SDL_FPoint }
%struct.SDL_FRect = type { float, float, float, float }
%struct.SDL_FPoint = type { float, float }
%struct.SDL_FColor = type { float, float, float, float }
%struct.SDL_Rect = type { i32, i32, i32, i32 }
%struct.GL_RenderData = type { ptr, i8, i8, i32, ptr, ptr, ptr, i32, i8, i8, i8, ptr, ptr, ptr, ptr, ptr, ptr, ptr, ptr, ptr, ptr, ptr, ptr, ptr, ptr, ptr, ptr, ptr, ptr, ptr, ptr, ptr, ptr, ptr, ptr, ptr, ptr, ptr, ptr, ptr, ptr, ptr, ptr, ptr, ptr, ptr, ptr, ptr, ptr, ptr, ptr, ptr, ptr, ptr, ptr, ptr, ptr, ptr, ptr, ptr, i8, ptr, i32, ptr, ptr, ptr, ptr, ptr, ptr, %struct.GL_DrawStateCache }
%struct.GL_DrawStateCache = type { i8, %struct.SDL_Rect, ptr, ptr, i32, i32, i32, i32, [4 x float], ptr, i8, i8, i8, %struct.SDL_Rect, i8, i8, i8, i8, i8, i8, %struct.SDL_FColor, i8, %struct.SDL_FColor }

@.str.40 = private unnamed_addr constant [19 x i8] c"%s: %s (%d): %s %s\00", align 1
@.str.41 = private unnamed_addr constant [8 x i8] c"generic\00", align 1
@.str.42 = private unnamed_addr constant [26 x i8] c"%s: %s (%d): %s %s (0x%X)\00", align 1
@.str.43 = private unnamed_addr constant [16 x i8] c"GL_INVALID_ENUM\00", align 1
@.str.44 = private unnamed_addr constant [17 x i8] c"GL_INVALID_VALUE\00", align 1
@.str.45 = private unnamed_addr constant [21 x i8] c"GL_INVALID_OPERATION\00", align 1
@.str.46 = private unnamed_addr constant [17 x i8] c"GL_OUT_OF_MEMORY\00", align 1
@.str.47 = private unnamed_addr constant [12 x i8] c"GL_NO_ERROR\00", align 1
@.str.48 = private unnamed_addr constant [18 x i8] c"GL_STACK_OVERFLOW\00", align 1
@.str.49 = private unnamed_addr constant [19 x i8] c"GL_STACK_UNDERFLOW\00", align 1
@.str.50 = private unnamed_addr constant [19 x i8] c"GL_TABLE_TOO_LARGE\00", align 1
@.str.51 = private unnamed_addr constant [8 x i8] c"UNKNOWN\00", align 1

; Function Attrs: nounwind uwtable
define internal ptr @GL_TranslateError(i32 noundef %0) #0 {
  %2 = alloca ptr, align 8
  %3 = alloca i32, align 4
  store i32 %0, ptr %3, align 4
  %4 = load i32, ptr %3, align 4
  switch i32 %4, label %13 [
    i32 1280, label %5
    i32 1281, label %6
    i32 1282, label %7
    i32 1285, label %8
    i32 0, label %9
    i32 1283, label %10
    i32 1284, label %11
    i32 32817, label %12
  ]

5:                                                ; preds = %1
  store ptr @.str.43, ptr %2, align 8
  br label %14

6:                                                ; preds = %1
  store ptr @.str.44, ptr %2, align 8
  br label %14

7:                                                ; preds = %1
  store ptr @.str.45, ptr %2, align 8
  br label %14

8:                                                ; preds = %1
  store ptr @.str.46, ptr %2, align 8
  br label %14

9:                                                ; preds = %1
  store ptr @.str.47, ptr %2, align 8
  br label %14

10:                                               ; preds = %1
  store ptr @.str.48, ptr %2, align 8
  br label %14

11:                                               ; preds = %1
  store ptr @.str.49, ptr %2, align 8
  br label %14

12:                                               ; preds = %1
  store ptr @.str.50, ptr %2, align 8
  br label %14

13:                                               ; preds = %1
  store ptr @.str.51, ptr %2, align 8
  br label %14

14:                                               ; preds = %13, %12, %11, %10, %9, %8, %7, %6, %5
  %15 = load ptr, ptr %2, align 8
  ret ptr %15
}

; Function Attrs: nounwind uwtable
define internal void @GL_ClearErrors(ptr noundef %0) #0 {
  %2 = alloca ptr, align 8
  %3 = alloca ptr, align 8
  %4 = alloca i32, align 4
  %5 = alloca i32, align 4
  store ptr %0, ptr %2, align 8
  call void @llvm.lifetime.start.p0(i64 8, ptr %3) #4
  %6 = load ptr, ptr %2, align 8
  %7 = getelementptr inbounds nuw %struct.SDL_Renderer, ptr %6, i32 0, i32 77
  %8 = load ptr, ptr %7, align 8
  store ptr %8, ptr %3, align 8
  %9 = load ptr, ptr %3, align 8
  %10 = getelementptr inbounds nuw %struct.GL_RenderData, ptr %9, i32 0, i32 1
  %11 = load i8, ptr %10, align 8, !range !3, !noundef !4
  %12 = trunc i8 %11 to i1
  br i1 %12, label %14, label %13

13:                                               ; preds = %1
  store i32 1, ptr %4, align 4
  br label %67

14:                                               ; preds = %1
  %15 = load ptr, ptr %3, align 8
  %16 = getelementptr inbounds nuw %struct.GL_RenderData, ptr %15, i32 0, i32 2
  %17 = load i8, ptr %16, align 1, !range !3, !noundef !4
  %18 = trunc i8 %17 to i1
  br i1 %18, label %19, label %51

19:                                               ; preds = %14
  %20 = load ptr, ptr %3, align 8
  %21 = getelementptr inbounds nuw %struct.GL_RenderData, ptr %20, i32 0, i32 3
  %22 = load i32, ptr %21, align 4
  %23 = icmp ne i32 %22, 0
  br i1 %23, label %24, label %50

24:                                               ; preds = %19
  call void @llvm.lifetime.start.p0(i64 4, ptr %5) #4
  store i32 0, ptr %5, align 4
  br label %25

25:                                               ; preds = %39, %24
  %26 = load i32, ptr %5, align 4
  %27 = load ptr, ptr %3, align 8
  %28 = getelementptr inbounds nuw %struct.GL_RenderData, ptr %27, i32 0, i32 3
  %29 = load i32, ptr %28, align 4
  %30 = icmp slt i32 %26, %29
  br i1 %30, label %31, label %42

31:                                               ; preds = %25
  %32 = load ptr, ptr %3, align 8
  %33 = getelementptr inbounds nuw %struct.GL_RenderData, ptr %32, i32 0, i32 4
  %34 = load ptr, ptr %33, align 8
  %35 = load i32, ptr %5, align 4
  %36 = sext i32 %35 to i64
  %37 = getelementptr inbounds ptr, ptr %34, i64 %36
  %38 = load ptr, ptr %37, align 8
  call void @SDL_free_REAL(ptr noundef %38)
  br label %39

39:                                               ; preds = %31
  %40 = load i32, ptr %5, align 4
  %41 = add nsw i32 %40, 1
  store i32 %41, ptr %5, align 4
  br label %25, !llvm.loop !16

42:                                               ; preds = %25
  %43 = load ptr, ptr %3, align 8
  %44 = getelementptr inbounds nuw %struct.GL_RenderData, ptr %43, i32 0, i32 4
  %45 = load ptr, ptr %44, align 8
  call void @SDL_free_REAL(ptr noundef %45)
  %46 = load ptr, ptr %3, align 8
  %47 = getelementptr inbounds nuw %struct.GL_RenderData, ptr %46, i32 0, i32 3
  store i32 0, ptr %47, align 4
  %48 = load ptr, ptr %3, align 8
  %49 = getelementptr inbounds nuw %struct.GL_RenderData, ptr %48, i32 0, i32 4
  store ptr null, ptr %49, align 8
  call void @llvm.lifetime.end.p0(i64 4, ptr %5) #4
  br label %50

50:                                               ; preds = %42, %19
  br label %66

51:                                               ; preds = %14
  %52 = load ptr, ptr %3, align 8
  %53 = getelementptr inbounds nuw %struct.GL_RenderData, ptr %52, i32 0, i32 32
  %54 = load ptr, ptr %53, align 8
  %55 = icmp ne ptr %54, null
  br i1 %55, label %56, label %65

56:                                               ; preds = %51
  br label %57

57:                                               ; preds = %63, %56
  %58 = load ptr, ptr %3, align 8
  %59 = getelementptr inbounds nuw %struct.GL_RenderData, ptr %58, i32 0, i32 32
  %60 = load ptr, ptr %59, align 8
  %61 = call i32 %60()
  %62 = icmp ne i32 %61, 0
  br i1 %62, label %63, label %64

63:                                               ; preds = %57
  br label %57, !llvm.loop !17

64:                                               ; preds = %57
  br label %65

65:                                               ; preds = %64, %51
  br label %66

66:                                               ; preds = %65, %50
  store i32 0, ptr %4, align 4
  br label %67

67:                                               ; preds = %66, %13
  call void @llvm.lifetime.end.p0(i64 8, ptr %3) #4
  %68 = load i32, ptr %4, align 4
  switch i32 %68, label %70 [
    i32 0, label %69
    i32 1, label %69
  ]

69:                                               ; preds = %67, %67
  ret void

70:                                               ; preds = %67
  unreachable
}

; Function Attrs: nounwind uwtable
define internal zeroext i1 @GL_CheckAllErrors(ptr noundef %0, ptr noundef %1, ptr noundef %2, i32 noundef %3, ptr noundef %4) #0 {
  %6 = alloca i1, align 1
  %7 = alloca ptr, align 8
  %8 = alloca ptr, align 8
  %9 = alloca ptr, align 8
  %10 = alloca i32, align 4
  %11 = alloca ptr, align 8
  %12 = alloca ptr, align 8
  %13 = alloca i8, align 1
  %14 = alloca i32, align 4
  %15 = alloca i32, align 4
  %16 = alloca i32, align 4
  store ptr %0, ptr %7, align 8
  store ptr %1, ptr %8, align 8
  store ptr %2, ptr %9, align 8
  store i32 %3, ptr %10, align 4
  store ptr %4, ptr %11, align 8
  call void @llvm.lifetime.start.p0(i64 8, ptr %12) #4
  %17 = load ptr, ptr %8, align 8
  %18 = getelementptr inbounds nuw %struct.SDL_Renderer, ptr %17, i32 0, i32 77
  %19 = load ptr, ptr %18, align 8
  store ptr %19, ptr %12, align 8
  call void @llvm.lifetime.start.p0(i64 1, ptr %13) #4
  store i8 1, ptr %13, align 1
  %20 = load ptr, ptr %12, align 8
  %21 = getelementptr inbounds nuw %struct.GL_RenderData, ptr %20, i32 0, i32 1
  %22 = load i8, ptr %21, align 8, !range !3, !noundef !4
  %23 = trunc i8 %22 to i1
  br i1 %23, label %25, label %24

24:                                               ; preds = %5
  store i1 true, ptr %6, align 1
  store i32 1, ptr %14, align 4
  br label %97

25:                                               ; preds = %5
  %26 = load ptr, ptr %12, align 8
  %27 = getelementptr inbounds nuw %struct.GL_RenderData, ptr %26, i32 0, i32 2
  %28 = load i8, ptr %27, align 1, !range !3, !noundef !4
  %29 = trunc i8 %28 to i1
  br i1 %29, label %30, label %61

30:                                               ; preds = %25
  %31 = load ptr, ptr %12, align 8
  %32 = getelementptr inbounds nuw %struct.GL_RenderData, ptr %31, i32 0, i32 3
  %33 = load i32, ptr %32, align 4
  %34 = icmp ne i32 %33, 0
  br i1 %34, label %35, label %60

35:                                               ; preds = %30
  call void @llvm.lifetime.start.p0(i64 4, ptr %15) #4
  store i32 0, ptr %15, align 4
  br label %36

36:                                               ; preds = %55, %35
  %37 = load i32, ptr %15, align 4
  %38 = load ptr, ptr %12, align 8
  %39 = getelementptr inbounds nuw %struct.GL_RenderData, ptr %38, i32 0, i32 3
  %40 = load i32, ptr %39, align 4
  %41 = icmp slt i32 %37, %40
  br i1 %41, label %42, label %58

42:                                               ; preds = %36
  %43 = load ptr, ptr %7, align 8
  %44 = load ptr, ptr %9, align 8
  %45 = load i32, ptr %10, align 4
  %46 = load ptr, ptr %11, align 8
  %47 = load ptr, ptr %12, align 8
  %48 = getelementptr inbounds nuw %struct.GL_RenderData, ptr %47, i32 0, i32 4
  %49 = load ptr, ptr %48, align 8
  %50 = load i32, ptr %15, align 4
  %51 = sext i32 %50 to i64
  %52 = getelementptr inbounds ptr, ptr %49, i64 %51
  %53 = load ptr, ptr %52, align 8
  %54 = call zeroext i1 (ptr, ...) @SDL_SetError_REAL(ptr noundef @.str.40, ptr noundef %43, ptr noundef %44, i32 noundef %45, ptr noundef %46, ptr noundef %53)
  store i8 0, ptr %13, align 1
  br label %55

55:                                               ; preds = %42
  %56 = load i32, ptr %15, align 4
  %57 = add nsw i32 %56, 1
  store i32 %57, ptr %15, align 4
  br label %36, !llvm.loop !15

58:                                               ; preds = %36
  %59 = load ptr, ptr %8, align 8
  call void @GL_ClearErrors(ptr noundef %59)
  call void @llvm.lifetime.end.p0(i64 4, ptr %15) #4
  br label %60

60:                                               ; preds = %58, %30
  br label %94

61:                                               ; preds = %25
  br label %62

62:                                               ; preds = %92, %61
  call void @llvm.lifetime.start.p0(i64 4, ptr %16) #4
  %63 = load ptr, ptr %12, align 8
  %64 = getelementptr inbounds nuw %struct.GL_RenderData, ptr %63, i32 0, i32 32
  %65 = load ptr, ptr %64, align 8
  %66 = call i32 %65()
  store i32 %66, ptr %16, align 4
  %67 = load i32, ptr %16, align 4
  %68 = icmp ne i32 %67, 0
  br i1 %68, label %69, label %88

69:                                               ; preds = %62
  %70 = load ptr, ptr %7, align 8
  %71 = icmp eq ptr %70, null
  br i1 %71, label %78, label %72

72:                                               ; preds = %69
  %73 = load ptr, ptr %7, align 8
  %74 = getelementptr inbounds i8, ptr %73, i64 0
  %75 = load i8, ptr %74, align 1
  %76 = sext i8 %75 to i32
  %77 = icmp eq i32 %76, 0
  br i1 %77, label %78, label %79

78:                                               ; preds = %72, %69
  store ptr @.str.41, ptr %7, align 8
  br label %79

79:                                               ; preds = %78, %72
  %80 = load ptr, ptr %7, align 8
  %81 = load ptr, ptr %9, align 8
  %82 = load i32, ptr %10, align 4
  %83 = load ptr, ptr %11, align 8
  %84 = load i32, ptr %16, align 4
  %85 = call ptr @GL_TranslateError(i32 noundef %84)
  %86 = load i32, ptr %16, align 4
  %87 = call zeroext i1 (ptr, ...) @SDL_SetError_REAL(ptr noundef @.str.42, ptr noundef %80, ptr noundef %81, i32 noundef %82, ptr noundef %83, ptr noundef %85, i32 noundef %86)
  store i8 0, ptr %13, align 1
  br label %89

88:                                               ; preds = %62
  store i32 5, ptr %14, align 4
  br label %90

89:                                               ; preds = %79
  store i32 0, ptr %14, align 4
  br label %90

90:                                               ; preds = %89, %88
  call void @llvm.lifetime.end.p0(i64 4, ptr %16) #4
  %91 = load i32, ptr %14, align 4
  switch i32 %91, label %99 [
    i32 0, label %92
    i32 5, label %93
  ]

92:                                               ; preds = %90
  br label %62

93:                                               ; preds = %90
  br label %94

94:                                               ; preds = %93, %60
  %95 = load i8, ptr %13, align 1, !range !3, !noundef !4
  %96 = trunc i8 %95 to i1
  store i1 %96, ptr %6, align 1
  store i32 1, ptr %14, align 4
  br label %97

97:                                               ; preds = %94, %24
  call void @llvm.lifetime.end.p0(i64 1, ptr %13) #4
  call void @llvm.lifetime.end.p0(i64 8, ptr %12) #4
  %98 = load i1, ptr %6, align 1
  ret i1 %98

99:                                               ; preds = %90
  unreachable
}