; Function Attrs: nounwind uwtable
define internal fastcc noundef zeroext i1 @GL_CheckAllErrors(ptr noundef %0, ptr noundef readonly captures(none) %1, i32 noundef range(i32 505, 1617) %2, ptr noundef %3) unnamed_addr #0 {
  %5 = getelementptr inbounds nuw i8, ptr %1, i64 696
  %6 = load ptr, ptr %5, align 8
  %7 = getelementptr inbounds nuw i8, ptr %6, i64 8
  %8 = load i8, ptr %7, align 8, !range !3, !noundef !4
  %9 = trunc nuw i8 %8 to i1
  br i1 %9, label %10, label %GL_ClearErrors.exit

10:                                               ; preds = %4
  %11 = getelementptr inbounds nuw i8, ptr %6, i64 9
  %12 = load i8, ptr %11, align 1, !range !3, !noundef !4
  %13 = trunc nuw i8 %12 to i1
  br i1 %13, label %17, label %.preheader5

.preheader5:                                      ; preds = %10
  %14 = getelementptr inbounds nuw i8, ptr %6, i64 216
  %15 = load ptr, ptr %14, align 8
  %16 = tail call i32 %15() #7
  %.not7 = icmp eq i32 %16, 0
  br i1 %.not7, label %GL_ClearErrors.exit, label %.lr.ph

17:                                               ; preds = %10
  %18 = getelementptr inbounds nuw i8, ptr %6, i64 12
  %19 = load i32, ptr %18, align 4
  %.not33 = icmp eq i32 %19, 0
  br i1 %.not33, label %GL_ClearErrors.exit, label %.preheader

.preheader:                                       ; preds = %17
  %20 = icmp slt i32 %19, 1
  br i1 %20, label %._crit_edge.thread, label %.lr.ph10

.lr.ph10:                                         ; preds = %.preheader
  %21 = getelementptr inbounds nuw i8, ptr %6, i64 16
  br label %22

22:                                               ; preds = %.lr.ph10, %22
  %indvars.iv = phi i64 [ 0, %.lr.ph10 ], [ %indvars.iv.next, %22 ]
  %23 = load ptr, ptr %21, align 8
  %24 = getelementptr inbounds nuw ptr, ptr %23, i64 %indvars.iv
  %25 = load ptr, ptr %24, align 8
  %26 = tail call zeroext i1 (ptr, ...) @SDL_SetError_REAL(ptr noundef nonnull @.str.40, ptr noundef %0, ptr noundef nonnull @.str.25, i32 noundef %2, ptr noundef %3, ptr noundef %25) #7
  %indvars.iv.next = add nuw nsw i64 %indvars.iv, 1
  %27 = load i32, ptr %18, align 4
  %28 = sext i32 %27 to i64
  %29 = icmp slt i64 %indvars.iv.next, %28
  br i1 %29, label %22, label %._crit_edge, !llvm.loop !14

._crit_edge:                                      ; preds = %22
  %.val.pre = load ptr, ptr %5, align 8
  %.phi.trans.insert = getelementptr inbounds nuw i8, ptr %.val.pre, i64 8
  %.pre = load i8, ptr %.phi.trans.insert, align 8, !range !3
  %30 = trunc nuw i8 %.pre to i1
  br i1 %30, label %._crit_edge.thread, label %GL_ClearErrors.exit

._crit_edge.thread:                               ; preds = %.preheader, %._crit_edge
  %.val16 = phi ptr [ %.val.pre, %._crit_edge ], [ %6, %.preheader ]
  %31 = getelementptr inbounds nuw i8, ptr %.val16, i64 9
  %32 = load i8, ptr %31, align 1, !range !3, !noundef !4
  %33 = trunc nuw i8 %32 to i1
  br i1 %33, label %34, label %48

34:                                               ; preds = %._crit_edge.thread
  %35 = getelementptr inbounds nuw i8, ptr %.val16, i64 12
  %36 = load i32, ptr %35, align 4
  %.not14.i = icmp eq i32 %36, 0
  br i1 %.not14.i, label %GL_ClearErrors.exit, label %.preheader.i

.preheader.i:                                     ; preds = %34
  %37 = icmp sgt i32 %36, 0
  br i1 %37, label %.lr.ph.i, label %._crit_edge.i

.lr.ph.i:                                         ; preds = %.preheader.i
  %38 = getelementptr inbounds nuw i8, ptr %.val16, i64 16
  br label %39

39:                                               ; preds = %39, %.lr.ph.i
  %indvars.iv.i = phi i64 [ 0, %.lr.ph.i ], [ %indvars.iv.next.i, %39 ]
  %40 = load ptr, ptr %38, align 8
  %41 = getelementptr inbounds nuw ptr, ptr %40, i64 %indvars.iv.i
  %42 = load ptr, ptr %41, align 8
  tail call void @SDL_free_REAL(ptr noundef %42) #7
  %indvars.iv.next.i = add nuw nsw i64 %indvars.iv.i, 1
  %43 = load i32, ptr %35, align 4
  %44 = sext i32 %43 to i64
  %45 = icmp slt i64 %indvars.iv.next.i, %44
  br i1 %45, label %39, label %._crit_edge.i, !llvm.loop !11

._crit_edge.i:                                    ; preds = %39, %.preheader.i
  %46 = getelementptr inbounds nuw i8, ptr %.val16, i64 16
  %47 = load ptr, ptr %46, align 8
  tail call void @SDL_free_REAL(ptr noundef %47) #7
  store i32 0, ptr %35, align 4
  store ptr null, ptr %46, align 8
  br label %GL_ClearErrors.exit

48:                                               ; preds = %._crit_edge.thread
  %49 = getelementptr inbounds nuw i8, ptr %.val16, i64 216
  %50 = load ptr, ptr %49, align 8
  %.not.i = icmp eq ptr %50, null
  br i1 %.not.i, label %GL_ClearErrors.exit, label %.preheader1.i

.preheader1.i:                                    ; preds = %48, %.preheader1.i
  %51 = load ptr, ptr %49, align 8
  %52 = tail call i32 %51() #7
  %.not13.i = icmp eq i32 %52, 0
  br i1 %.not13.i, label %GL_ClearErrors.exit, label %.preheader1.i, !llvm.loop !12

.lr.ph:                                           ; preds = %.preheader5, %67
  %53 = phi i32 [ %70, %67 ], [ %16, %.preheader5 ]
  %.0298 = phi ptr [ %.130, %67 ], [ %0, %.preheader5 ]
  %54 = icmp eq ptr %.0298, null
  br i1 %54, label %58, label %55

55:                                               ; preds = %.lr.ph
  %56 = load i8, ptr %.0298, align 1
  %57 = icmp eq i8 %56, 0
  br i1 %57, label %58, label %59

58:                                               ; preds = %55, %.lr.ph
  br label %59

59:                                               ; preds = %58, %55
  %.130 = phi ptr [ @.str.41, %58 ], [ %.0298, %55 ]
  switch i32 %53, label %66 [
    i32 1280, label %67
    i32 1281, label %60
    i32 1282, label %61
    i32 1285, label %62
    i32 32817, label %65
    i32 1283, label %63
    i32 1284, label %64
  ]

60:                                               ; preds = %59
  br label %67

61:                                               ; preds = %59
  br label %67

62:                                               ; preds = %59
  br label %67

63:                                               ; preds = %59
  br label %67

64:                                               ; preds = %59
  br label %67

65:                                               ; preds = %59
  br label %67

66:                                               ; preds = %59
  br label %67

67:                                               ; preds = %66, %65, %64, %63, %62, %61, %60, %59
  %.0.i = phi ptr [ @.str.51, %66 ], [ @.str.50, %65 ], [ @.str.49, %64 ], [ @.str.48, %63 ], [ @.str.46, %62 ], [ @.str.45, %61 ], [ @.str.44, %60 ], [ @.str.43, %59 ]
  %68 = tail call zeroext i1 (ptr, ...) @SDL_SetError_REAL(ptr noundef nonnull @.str.42, ptr noundef nonnull %.130, ptr noundef nonnull @.str.25, i32 noundef %2, ptr noundef %3, ptr noundef nonnull %.0.i, i32 noundef %53) #7
  %69 = load ptr, ptr %14, align 8
  %70 = tail call i32 %69() #7
  %.not = icmp eq i32 %70, 0
  br i1 %.not, label %GL_ClearErrors.exit, label %.lr.ph

GL_ClearErrors.exit:                              ; preds = %67, %.preheader1.i, %.preheader5, %17, %._crit_edge, %34, %._crit_edge.i, %48, %4
  %.0 = phi i1 [ true, %4 ], [ true, %17 ], [ false, %._crit_edge ], [ %20, %34 ], [ %20, %._crit_edge.i ], [ %20, %48 ], [ true, %.preheader5 ], [ %20, %.preheader1.i ], [ false, %67 ]
  ret i1 %.0
}